; ModuleID = 'source-C-CXX/42/1696.c'
source_filename = "source-C-CXX/42/1696.c"
target datalayout = "e-m:e-p270:32:32-p271:32:32-p272:64:64-i64:64-f80:128-n8:16:32:64-S128"
target triple = "x86_64-pc-linux-gnu"

@.str = private unnamed_addr constant [3 x i8] c"%d\00", align 1
@.str.1 = private unnamed_addr constant [7 x i8] c"%d %d\0A\00", align 1

; Function Attrs: nofree norecurse nosync nounwind readnone sspstrong uwtable
define dso_local i32 @ss(i32 %0) local_unnamed_addr #0 {
  %2 = icmp slt i32 %0, 4
  br i1 %2, label %14, label %3

3:                                                ; preds = %1, %3
  %4 = phi i32 [ %7, %3 ], [ 2, %1 ]
  %5 = srem i32 %0, %4
  %6 = icmp eq i32 %5, 0
  %7 = add nuw nsw i32 %4, 1
  %8 = mul nsw i32 %7, %7
  %9 = icmp sgt i32 %8, %0
  %10 = select i1 %6, i1 true, i1 %9
  br i1 %10, label %11, label %3, !llvm.loop !5

11:                                               ; preds = %3
  %12 = xor i1 %6, true
  %13 = zext i1 %12 to i32
  br label %14

14:                                               ; preds = %11, %1
  %15 = phi i32 [ 1, %1 ], [ %13, %11 ]
  ret i32 %15
}

; Function Attrs: argmemonly mustprogress nofree nosync nounwind willreturn
declare void @llvm.lifetime.start.p0i8(i64 immarg, i8* nocapture) #1

; Function Attrs: argmemonly mustprogress nofree nosync nounwind willreturn
declare void @llvm.lifetime.end.p0i8(i64 immarg, i8* nocapture) #1

; Function Attrs: nofree nounwind sspstrong uwtable
define dso_local i32 @main() local_unnamed_addr #2 {
  %1 = alloca i32, align 4
  %2 = bitcast i32* %1 to i8*
  call void @llvm.lifetime.start.p0i8(i64 4, i8* nonnull %2) #4
  %3 = call i32 (i8*, ...) @__isoc99_scanf(i8* getelementptr inbounds ([3 x i8], [3 x i8]* @.str, i64 0, i64 0), i32* nonnull %1)
  %4 = load i32, i32* %1, align 4, !tbaa !7
  %5 = icmp slt i32 %4, 6
  br i1 %5, label %39, label %6

6:                                                ; preds = %0, %34
  %7 = phi i32 [ %35, %34 ], [ %4, %0 ]
  %8 = phi i32 [ %36, %34 ], [ 3, %0 ]
  %9 = icmp ult i32 %8, 4
  br i1 %9, label %19, label %10

10:                                               ; preds = %6, %10
  %11 = phi i32 [ %14, %10 ], [ 2, %6 ]
  %12 = urem i32 %8, %11
  %13 = icmp eq i32 %12, 0
  %14 = add nuw nsw i32 %11, 1
  %15 = mul nsw i32 %14, %14
  %16 = icmp ugt i32 %15, %8
  %17 = select i1 %13, i1 true, i1 %16
  br i1 %17, label %18, label %10, !llvm.loop !5

18:                                               ; preds = %10
  br i1 %13, label %34, label %19

19:                                               ; preds = %6, %18
  %20 = sub nsw i32 %7, %8
  %21 = icmp slt i32 %20, 4
  br i1 %21, label %31, label %22

22:                                               ; preds = %19, %22
  %23 = phi i32 [ %26, %22 ], [ 2, %19 ]
  %24 = srem i32 %20, %23
  %25 = icmp eq i32 %24, 0
  %26 = add nuw nsw i32 %23, 1
  %27 = mul nsw i32 %26, %26
  %28 = icmp sgt i32 %27, %20
  %29 = select i1 %25, i1 true, i1 %28
  br i1 %29, label %30, label %22, !llvm.loop !5

30:                                               ; preds = %22
  br i1 %25, label %34, label %31

31:                                               ; preds = %19, %30
  %32 = call i32 (i8*, ...) @printf(i8* nonnull dereferenceable(1) getelementptr inbounds ([7 x i8], [7 x i8]* @.str.1, i64 0, i64 0), i32 %8, i32 %20)
  %33 = load i32, i32* %1, align 4, !tbaa !7
  br label %34

34:                                               ; preds = %18, %30, %31
  %35 = phi i32 [ %7, %18 ], [ %7, %30 ], [ %33, %31 ]
  %36 = add nuw nsw i32 %8, 1
  %37 = sdiv i32 %35, 2
  %38 = icmp slt i32 %8, %37
  br i1 %38, label %6, label %39, !llvm.loop !11

39:                                               ; preds = %34, %0
  call void @llvm.lifetime.end.p0i8(i64 4, i8* nonnull %2) #4
  ret i32 0
}

; Function Attrs: nofree nounwind
declare noundef i32 @__isoc99_scanf(i8* nocapture noundef readonly, ...) local_unnamed_addr #3

; Function Attrs: nofree nounwind
declare noundef i32 @printf(i8* nocapture noundef readonly, ...) local_unnamed_addr #3


!llvm.module.flags = !{!0, !1, !2, !3}
!llvm.ident = !{!4}

!0 = !{i32 1, !"wchar_size", i32 4}
!1 = !{i32 7, !"PIC Level", i32 2}
!2 = !{i32 7, !"PIE Level", i32 2}
!3 = !{i32 7, !"uwtable", i32 1}
!4 = !{!"clang version 13.0.0"}
!5 = distinct !{!5, !6}
!6 = !{!"llvm.loop.mustprogress"}
!7 = !{!8, !8, i64 0}
!8 = !{!"int", !9, i64 0}
!9 = !{!"omnipotent char", !10, i64 0}
!10 = !{!"Simple C/C++ TBAA"}
!11 = distinct !{!11, !6}
